; Function Attrs: mustprogress nofree norecurse nosync nounwind willreturn memory(read, inaccessiblemem: none) uwtable
define dso_local noundef zeroext i1 @_ZN4llvm16MachinePipeliner18useWindowSchedulerEb(ptr nocapture noundef nonnull readonly align 8 dereferenceable(616) %0, i1 noundef zeroext %1) local_unnamed_addr #4 align 2 {
  %3 = getelementptr inbounds nuw i8, ptr %0, i64 428
  %4 = load i32, ptr %3, align 4
  %.not = icmp eq i32 %4, 0
  br i1 %.not, label %5, label %12

5:                                                ; preds = %2
  %6 = load i32, ptr getelementptr inbounds (i8, ptr @_ZN4llvm22WindowSchedulingOptionE, i64 128), align 8
  %7 = icmp eq i32 %6, 2
  br i1 %7, label %12, label %8

8:                                                ; preds = %5
  %9 = icmp eq i32 %6, 1
  %10 = xor i1 %1, true
  %11 = and i1 %9, %10
  br label %12

12:                                               ; preds = %5, %8, %2
  %.0 = phi i1 [ false, %2 ], [ true, %5 ], [ %11, %8 ]
  ret i1 %.0
}